; Function Attrs: nounwind uwtable
define i32 @Msat_SolverSolve(ptr noundef %0, ptr noundef %1, i32 noundef %2, i32 noundef %3) local_unnamed_addr #0 {
  %5 = alloca %struct.timespec, align 8
  %6 = alloca %struct.timespec, align 8
  %7 = alloca %struct.Msat_SearchParams_t_, align 8
  call void @llvm.lifetime.start.p0(i64 16, ptr nonnull %7) #8
  call void @llvm.memcpy.p0.p0.i64(ptr noundef nonnull align 8 dereferenceable(16) %7, ptr noundef nonnull align 8 dereferenceable(16) @__const.Msat_SolverSolve.Params, i64 16, i1 false)
  call void @llvm.lifetime.start.p0(i64 16, ptr nonnull %6) #8
  %8 = call i32 @clock_gettime(i32 noundef 1, ptr noundef nonnull %6) #8
  %9 = icmp slt i32 %8, 0
  br i1 %9, label %Abc_Clock.exit, label %10

10:                                               ; preds = %4
  %11 = load i64, ptr %6, align 8, !tbaa !37
  %.neg59 = mul i64 %11, -1000000
  %12 = getelementptr inbounds nuw i8, ptr %6, i64 8
  %13 = load i64, ptr %12, align 8, !tbaa !39
  %.neg = sdiv i64 %13, -1000
  %.neg60 = add i64 %.neg, %.neg59
  br label %Abc_Clock.exit

Abc_Clock.exit:                                   ; preds = %4, %10
  %.0.i.neg = phi i64 [ %.neg60, %10 ], [ 1, %4 ]
  call void @llvm.lifetime.end.p0(i64 16, ptr nonnull %6) #8
  %.not = icmp eq ptr %1, null
  br i1 %.not, label %.critedge, label %14

14:                                               ; preds = %Abc_Clock.exit
  %15 = call i32 @Msat_IntVecReadSize(ptr noundef nonnull %1) #8
  %16 = call ptr @Msat_IntVecReadArray(ptr noundef nonnull %1) #8
  %.not5461 = icmp sgt i32 %15, 0
  br i1 %.not5461, label %.lr.ph.preheader, label %.critedge

.lr.ph.preheader:                                 ; preds = %14
  %wide.trip.count = zext nneg i32 %15 to i64
  br label %.lr.ph

17:                                               ; preds = %21
  %indvars.iv.next = add nuw nsw i64 %indvars.iv, 1
  %exitcond.not = icmp eq i64 %indvars.iv.next, %wide.trip.count
  br i1 %exitcond.not, label %.critedge, label %.lr.ph, !llvm.loop !40

.lr.ph:                                           ; preds = %.lr.ph.preheader, %17
  %indvars.iv = phi i64 [ 0, %.lr.ph.preheader ], [ %indvars.iv.next, %17 ]
  %18 = getelementptr inbounds nuw i32, ptr %16, i64 %indvars.iv
  %19 = load i32, ptr %18, align 4, !tbaa !24
  %20 = call i32 @Msat_SolverAssume(ptr noundef %0, i32 noundef %19) #8
  %.not52 = icmp eq i32 %20, 0
  br i1 %.not52, label %23, label %21

21:                                               ; preds = %.lr.ph
  %22 = call ptr @Msat_SolverPropagate(ptr noundef %0) #8
  %.not53 = icmp eq ptr %22, null
  br i1 %.not53, label %17, label %23

23:                                               ; preds = %21, %.lr.ph
  %24 = getelementptr inbounds nuw i8, ptr %0, i64 88
  %25 = load ptr, ptr %24, align 8, !tbaa !41
  call void @Msat_QueueClear(ptr noundef %25) #8
  call void @Msat_SolverCancelUntil(ptr noundef %0, i32 noundef 0) #8
  br label %99

.critedge:                                        ; preds = %17, %14, %Abc_Clock.exit
  %26 = call i32 @Msat_SolverReadDecisionLevel(ptr noundef %0) #8
  %27 = getelementptr inbounds nuw i8, ptr %0, i64 152
  store i32 %26, ptr %27, align 8, !tbaa !42
  %28 = getelementptr inbounds nuw i8, ptr %0, i64 8
  %29 = load ptr, ptr %28, align 8, !tbaa !27
  %30 = call i32 @Msat_ClauseVecReadSize(ptr noundef %29) #8
  %31 = getelementptr inbounds nuw i8, ptr %0, i64 312
  store i32 %30, ptr %31, align 8, !tbaa !43
  %32 = load ptr, ptr %28, align 8, !tbaa !27
  %33 = call i32 @Msat_ClauseVecReadSize(ptr noundef %32) #8
  %34 = sdiv i32 %33, 3
  %35 = sitofp i32 %34 to double
  %36 = getelementptr inbounds nuw i8, ptr %0, i64 288
  %37 = load i64, ptr %36, align 8, !tbaa !33
  %38 = trunc i64 %37 to i32
  %39 = getelementptr inbounds nuw i8, ptr %0, i64 324
  store i32 %38, ptr %39, align 4, !tbaa !44
  %40 = getelementptr inbounds nuw i8, ptr %0, i64 168
  %41 = getelementptr inbounds nuw i8, ptr %0, i64 176
  %42 = icmp sgt i32 %2, 0
  %43 = icmp sgt i32 %3, 0
  %44 = getelementptr inbounds nuw i8, ptr %5, i64 8
  %45 = zext nneg i32 %3 to i64
  %46 = mul nuw nsw i64 %45, 1000000
  br i1 %43, label %.critedge.split.us, label %.critedge.split

.critedge.split.us:                               ; preds = %.critedge, %Abc_Clock.exit58.us
  %.04564.us = phi double [ %53, %Abc_Clock.exit58.us ], [ 1.000000e+02, %.critedge ]
  %.04663.us = phi double [ %54, %Abc_Clock.exit58.us ], [ %35, %.critedge ]
  %47 = load i32, ptr %40, align 8, !tbaa !45
  %.not55.us = icmp eq i32 %47, 0
  %.pre = fptosi double %.04564.us to i32
  %.pre75 = fptosi double %.04663.us to i32
  br i1 %.not55.us, label %.critedge.split.us._crit_edge, label %48

48:                                               ; preds = %.critedge.split.us
  %49 = load double, ptr %41, align 8, !tbaa !46
  %50 = fmul double %49, 1.000000e+02
  %51 = call i32 (ptr, ...) @printf(ptr noundef nonnull dereferenceable(1) @.str.6, i32 noundef %.pre, i32 noundef %.pre75, double noundef %50)
  br label %.critedge.split.us._crit_edge

.critedge.split.us._crit_edge:                    ; preds = %.critedge.split.us, %48
  %52 = call i32 @Msat_SolverSearch(ptr noundef nonnull %0, i32 noundef %.pre, i32 noundef %.pre75, i32 noundef %2, ptr noundef nonnull %7) #8
  %53 = fmul double %.04564.us, 1.500000e+00
  %54 = fmul double %.04663.us, 1.100000e+00
  br i1 %42, label %55, label %61

55:                                               ; preds = %.critedge.split.us._crit_edge
  %56 = load i64, ptr %36, align 8, !tbaa !33
  %57 = trunc i64 %56 to i32
  %58 = load i32, ptr %39, align 4, !tbaa !44
  %59 = sub nsw i32 %57, %58
  %60 = icmp sgt i32 %59, %2
  br i1 %60, label %.split.us, label %61

61:                                               ; preds = %55, %.critedge.split.us._crit_edge
  call void @llvm.lifetime.start.p0(i64 16, ptr nonnull %5) #8
  %62 = call i32 @clock_gettime(i32 noundef 1, ptr noundef nonnull %5) #8
  %63 = icmp slt i32 %62, 0
  br i1 %63, label %Abc_Clock.exit58.us, label %64

64:                                               ; preds = %61
  %65 = load i64, ptr %5, align 8, !tbaa !37
  %66 = mul nsw i64 %65, 1000000
  %67 = load i64, ptr %44, align 8, !tbaa !39
  %68 = sdiv i64 %67, 1000
  %69 = add nsw i64 %68, %66
  br label %Abc_Clock.exit58.us

Abc_Clock.exit58.us:                              ; preds = %64, %61
  %.0.i57.us = phi i64 [ %69, %64 ], [ -1, %61 ]
  call void @llvm.lifetime.end.p0(i64 16, ptr nonnull %5) #8
  %70 = add i64 %.0.i57.us, %.0.i.neg
  %.not56.us = icmp slt i64 %70, %46
  %71 = icmp eq i32 %52, 0
  %or.cond = select i1 %.not56.us, i1 %71, i1 false
  br i1 %or.cond, label %.critedge.split.us, label %.split.us, !llvm.loop !47

.critedge.split:                                  ; preds = %.critedge
  br i1 %42, label %.critedge.split.split.us, label %.critedge.split.split

.critedge.split.split.us:                         ; preds = %.critedge.split, %.critedge.split.split.us._crit_edge
  %.04564.us65 = phi double [ %78, %.critedge.split.split.us._crit_edge ], [ 1.000000e+02, %.critedge.split ]
  %.04663.us66 = phi double [ %79, %.critedge.split.split.us._crit_edge ], [ %35, %.critedge.split ]
  %72 = load i32, ptr %40, align 8, !tbaa !45
  %.not55.us67 = icmp eq i32 %72, 0
  %.pre77 = fptosi double %.04564.us65 to i32
  %.pre79 = fptosi double %.04663.us66 to i32
  br i1 %.not55.us67, label %.critedge.split.split.us._crit_edge, label %73

73:                                               ; preds = %.critedge.split.split.us
  %74 = load double, ptr %41, align 8, !tbaa !46
  %75 = fmul double %74, 1.000000e+02
  %76 = call i32 (ptr, ...) @printf(ptr noundef nonnull dereferenceable(1) @.str.6, i32 noundef %.pre77, i32 noundef %.pre79, double noundef %75)
  br label %.critedge.split.split.us._crit_edge

.critedge.split.split.us._crit_edge:              ; preds = %.critedge.split.split.us, %73
  %77 = call i32 @Msat_SolverSearch(ptr noundef nonnull %0, i32 noundef %.pre77, i32 noundef %.pre79, i32 noundef %2, ptr noundef nonnull %7) #8
  %78 = fmul double %.04564.us65, 1.500000e+00
  %79 = fmul double %.04663.us66, 1.100000e+00
  %80 = load i64, ptr %36, align 8, !tbaa !33
  %81 = trunc i64 %80 to i32
  %82 = load i32, ptr %39, align 4, !tbaa !44
  %83 = sub nsw i32 %81, %82
  %84 = icmp sle i32 %83, %2
  %85 = icmp eq i32 %77, 0
  %or.cond69 = select i1 %84, i1 %85, i1 false
  br i1 %or.cond69, label %.critedge.split.split.us, label %.split.us, !llvm.loop !47

.critedge.split.split:                            ; preds = %.critedge.split, %.critedge.split.split._crit_edge
  %.04564 = phi double [ %92, %.critedge.split.split._crit_edge ], [ 1.000000e+02, %.critedge.split ]
  %.04663 = phi double [ %93, %.critedge.split.split._crit_edge ], [ %35, %.critedge.split ]
  %86 = load i32, ptr %40, align 8, !tbaa !45
  %.not55 = icmp eq i32 %86, 0
  %.pre81 = fptosi double %.04564 to i32
  %.pre83 = fptosi double %.04663 to i32
  br i1 %.not55, label %.critedge.split.split._crit_edge, label %87

87:                                               ; preds = %.critedge.split.split
  %88 = load double, ptr %41, align 8, !tbaa !46
  %89 = fmul double %88, 1.000000e+02
  %90 = call i32 (ptr, ...) @printf(ptr noundef nonnull dereferenceable(1) @.str.6, i32 noundef %.pre81, i32 noundef %.pre83, double noundef %89)
  br label %.critedge.split.split._crit_edge

.critedge.split.split._crit_edge:                 ; preds = %.critedge.split.split, %87
  %91 = call i32 @Msat_SolverSearch(ptr noundef nonnull %0, i32 noundef %.pre81, i32 noundef %.pre83, i32 noundef %2, ptr noundef nonnull %7) #8
  %92 = fmul double %.04564, 1.500000e+00
  %93 = fmul double %.04663, 1.100000e+00
  %94 = icmp eq i32 %91, 0
  br i1 %94, label %.critedge.split.split, label %.split.us, !llvm.loop !47

.split.us:                                        ; preds = %.critedge.split.split._crit_edge, %.critedge.split.split.us._crit_edge, %55, %Abc_Clock.exit58.us
  %.us-phi = phi i32 [ %52, %Abc_Clock.exit58.us ], [ %52, %55 ], [ %77, %.critedge.split.split.us._crit_edge ], [ %91, %.critedge.split.split._crit_edge ]
  call void @Msat_SolverCancelUntil(ptr noundef %0, i32 noundef 0) #8
  %95 = load i64, ptr %36, align 8, !tbaa !33
  %96 = trunc i64 %95 to i32
  %97 = load i32, ptr %39, align 4, !tbaa !44
  %98 = sub nsw i32 %96, %97
  store i32 %98, ptr %39, align 4, !tbaa !44
  br label %99

99:                                               ; preds = %23, %.split.us
  %.1 = phi i32 [ %.us-phi, %.split.us ], [ -1, %23 ]
  call void @llvm.lifetime.end.p0(i64 16, ptr nonnull %7) #8
  ret i32 %.1
}